target datalayout = "e-m:e-p270:32:32-p271:32:32-p272:64:64-i64:64-i128:128-f80:128-n8:16:32:64-S128"
target triple = "x86_64-pc-linux-gnu"

%struct.GtkApi = type { i32, ptr, ptr, ptr, ptr, ptr, ptr, ptr, ptr, ptr, ptr, ptr, ptr, ptr, ptr, ptr, ptr, ptr, ptr, ptr, ptr, ptr, ptr, ptr, ptr, ptr, ptr, ptr, ptr, ptr, ptr, ptr, ptr, ptr, ptr, ptr, ptr, ptr, ptr, ptr, ptr, ptr, ptr, ptr, ptr, ptr, ptr, ptr, ptr, ptr, ptr, ptr, ptr, ptr, ptr, ptr, ptr, ptr, ptr, ptr, ptr, ptr, ptr, ptr, ptr, ptr, ptr, ptr, ptr, ptr, ptr, ptr, ptr, ptr, ptr, ptr, ptr, ptr, ptr, ptr, ptr, ptr, ptr, ptr, ptr, ptr, ptr, ptr, ptr, ptr, ptr, ptr, ptr, ptr, ptr, ptr, ptr, ptr, ptr, ptr, ptr, ptr, ptr, ptr, ptr }

@gtk = external global ptr, align 8

; Function Attrs: nounwind uwtable
define void @Java_com_sun_java_swing_plaf_gtk_GTKEngine_nativeSetRangeValue(ptr noundef %0, ptr noundef %1, i32 noundef %2, double noundef %3, double noundef %4, double noundef %5, double noundef %6) #0 {
  %8 = alloca ptr, align 8
  %9 = alloca ptr, align 8
  %10 = alloca i32, align 4
  %11 = alloca double, align 8
  %12 = alloca double, align 8
  %13 = alloca double, align 8
  %14 = alloca double, align 8
  store ptr %0, ptr %8, align 8
  store ptr %1, ptr %9, align 8
  store i32 %2, ptr %10, align 4
  store double %3, ptr %11, align 8
  store double %4, ptr %12, align 8
  store double %5, ptr %13, align 8
  store double %6, ptr %14, align 8
  %15 = load ptr, ptr @gtk, align 8
  %16 = getelementptr inbounds %struct.GtkApi, ptr %15, i32 0, i32 31
  %17 = load ptr, ptr %16, align 8
  call void %17()
  %18 = load ptr, ptr @gtk, align 8
  %19 = getelementptr inbounds %struct.GtkApi, ptr %18, i32 0, i32 21
  %20 = load ptr, ptr %19, align 8
  %21 = load i32, ptr %10, align 4
  %22 = load double, ptr %11, align 8
  %23 = load double, ptr %12, align 8
  %24 = load double, ptr %13, align 8
  %25 = load double, ptr %14, align 8
  call void %20(i32 noundef %21, double noundef %22, double noundef %23, double noundef %24, double noundef %25)
  %26 = load ptr, ptr @gtk, align 8
  %27 = getelementptr inbounds %struct.GtkApi, ptr %26, i32 0, i32 32
  %28 = load ptr, ptr %27, align 8
  call void %28()
  ret void
}