; Function Attrs: nounwind uwtable
define void @Java_com_sun_java_swing_plaf_gtk_GTKEngine_nativeSetRangeValue(ptr nocapture noundef readnone %0, ptr nocapture noundef readnone %1, i32 noundef %2, double noundef %3, double noundef %4, double noundef %5, double noundef %6) local_unnamed_addr #0 {
  %8 = load ptr, ptr @gtk, align 8
  %9 = getelementptr inbounds i8, ptr %8, i64 248
  %10 = load ptr, ptr %9, align 8
  tail call void %10() #4
  %11 = load ptr, ptr @gtk, align 8
  %12 = getelementptr inbounds i8, ptr %11, i64 168
  %13 = load ptr, ptr %12, align 8
  tail call void %13(i32 noundef %2, double noundef %3, double noundef %4, double noundef %5, double noundef %6) #4
  %14 = load ptr, ptr @gtk, align 8
  %15 = getelementptr inbounds i8, ptr %14, i64 256
  %16 = load ptr, ptr %15, align 8
  tail call void %16() #4
  ret void
}